target datalayout = "e-m:e-p270:32:32-p271:32:32-p272:64:64-i64:64-i128:128-f80:128-n8:16:32:64-S128"
target triple = "x86_64-pc-linux-gnu"

%struct.re_pattern_buffer = type { ptr, ptr, ptr, i32, i32, ptr, ptr, i32, i32, i32, i32, i32, i32, i32, i32, i32, ptr, ptr, i32, ptr, i32, ptr, i32, i32, i32, i32, i32, i32, ptr, ptr, [256 x i8], i32, i32, i32, ptr }

; Function Attrs: nounwind uwtable
define dso_local i32 @onig_number_of_capture_histories(ptr noundef %0) #0 {
  %2 = alloca ptr, align 8
  %3 = alloca i32, align 4
  %4 = alloca i32, align 4
  store ptr %0, ptr %2, align 8, !tbaa !57
  call void @llvm.lifetime.start.p0(i64 4, ptr %3) #9
  call void @llvm.lifetime.start.p0(i64 4, ptr %4) #9
  store i32 0, ptr %4, align 4, !tbaa !9
  store i32 0, ptr %3, align 4, !tbaa !9
  br label %5

5:                                                ; preds = %30, %1
  %6 = load i32, ptr %3, align 4, !tbaa !9
  %7 = icmp sle i32 %6, 31
  br i1 %7, label %8, label %33

8:                                                ; preds = %5
  %9 = load i32, ptr %3, align 4, !tbaa !9
  %10 = icmp slt i32 %9, 32
  br i1 %10, label %11, label %18

11:                                               ; preds = %8
  %12 = load ptr, ptr %2, align 8, !tbaa !57
  %13 = getelementptr inbounds nuw %struct.re_pattern_buffer, ptr %12, i32 0, i32 11
  %14 = load i32, ptr %13, align 8, !tbaa !125
  %15 = load i32, ptr %3, align 4, !tbaa !9
  %16 = shl i32 1, %15
  %17 = and i32 %14, %16
  br label %23

18:                                               ; preds = %8
  %19 = load ptr, ptr %2, align 8, !tbaa !57
  %20 = getelementptr inbounds nuw %struct.re_pattern_buffer, ptr %19, i32 0, i32 11
  %21 = load i32, ptr %20, align 8, !tbaa !125
  %22 = and i32 %21, 1
  br label %23

23:                                               ; preds = %18, %11
  %24 = phi i32 [ %17, %11 ], [ %22, %18 ]
  %25 = icmp ne i32 %24, 0
  br i1 %25, label %26, label %29

26:                                               ; preds = %23
  %27 = load i32, ptr %4, align 4, !tbaa !9
  %28 = add nsw i32 %27, 1
  store i32 %28, ptr %4, align 4, !tbaa !9
  br label %29

29:                                               ; preds = %26, %23
  br label %30

30:                                               ; preds = %29
  %31 = load i32, ptr %3, align 4, !tbaa !9
  %32 = add nsw i32 %31, 1
  store i32 %32, ptr %3, align 4, !tbaa !9
  br label %5, !llvm.loop !202

33:                                               ; preds = %5
  %34 = load i32, ptr %4, align 4, !tbaa !9
  call void @llvm.lifetime.end.p0(i64 4, ptr %4) #9
  call void @llvm.lifetime.end.p0(i64 4, ptr %3) #9
  ret i32 %34
}