; Function Attrs: nofree norecurse nosync nounwind memory(argmem: read) uwtable
define dso_local i32 @onig_number_of_capture_histories(ptr noundef readonly captures(none) %0) local_unnamed_addr #18 {
  %2 = getelementptr inbounds nuw i8, ptr %0, i64 64
  %3 = load i32, ptr %2, align 8, !tbaa !116
  br label %4

4:                                                ; preds = %1, %4
  %.09 = phi i32 [ 0, %1 ], [ %spec.select, %4 ]
  %.078 = phi i32 [ 0, %1 ], [ %7, %4 ]
  %5 = lshr i32 %3, %.078
  %6 = and i32 %5, 1
  %spec.select = add nuw nsw i32 %6, %.09
  %7 = add nuw nsw i32 %.078, 1
  %exitcond.not = icmp eq i32 %7, 32
  br i1 %exitcond.not, label %8, label %4, !llvm.loop !197

8:                                                ; preds = %4
  ret i32 %spec.select
}